; Function Attrs: nounwind uwtable
define hidden noalias ptr @mi_heap_calloc_aligned_at(ptr noundef %0, i64 noundef %1, i64 noundef %2, i64 noundef %3, i64 noundef %4) local_unnamed_addr #0 {
  %.not = icmp eq i64 %1, 1
  br i1 %.not, label %10, label %6

6:                                                ; preds = %5
  %7 = tail call { i64, i1 } @llvm.umul.with.overflow.i64(i64 range(i64 2, 1) %1, i64 %2)
  %8 = extractvalue { i64, i1 } %7, 1
  %9 = extractvalue { i64, i1 } %7, 0
  br i1 %8, label %mi_count_size_overflow.exit, label %10, !prof !17

10:                                               ; preds = %6, %5
  %storemerge.i.ph = phi i64 [ %2, %5 ], [ %9, %6 ]
  %11 = tail call range(i64 0, 65) i64 @llvm.ctpop.i64(i64 range(i64 1, 0) %3)
  %or.cond.not.i.i = icmp eq i64 %11, 1
  br i1 %or.cond.not.i.i, label %12, label %mi_count_size_overflow.exit, !prof !3

12:                                               ; preds = %10
  %13 = icmp ult i64 %storemerge.i.ph, 1025
  %14 = icmp ule i64 %3, %storemerge.i.ph
  %15 = and i1 %13, %14
  br i1 %15, label %16, label %.thread.i.i, !prof !4

16:                                               ; preds = %12
  %17 = add nuw nsw i64 %storemerge.i.ph, 7
  %18 = lshr i64 %17, 3
  %19 = getelementptr inbounds nuw i8, ptr %0, i64 232
  %20 = getelementptr inbounds nuw [129 x ptr], ptr %19, i64 0, i64 %18
  %21 = load ptr, ptr %20, align 8, !tbaa !5
  %22 = getelementptr inbounds nuw i8, ptr %21, i64 16
  %23 = load ptr, ptr %22, align 8, !tbaa !10
  %.not.i.i = icmp eq ptr %23, null
  br i1 %.not.i.i, label %.thread.i.i, label %24, !prof !17

24:                                               ; preds = %16
  %25 = add i64 %3, -1
  %26 = ptrtoint ptr %23 to i64
  %27 = add i64 %4, %26
  %28 = and i64 %27, %25
  %.not36.i.i = icmp eq i64 %28, 0
  br i1 %.not36.i.i, label %29, label %.thread.i.i, !prof !4

29:                                               ; preds = %24
  %30 = tail call ptr @_mi_page_malloc_zeroed(ptr noundef nonnull %0, ptr noundef nonnull %21, i64 noundef %storemerge.i.ph) #8
  br label %mi_count_size_overflow.exit

.thread.i.i:                                      ; preds = %24, %16, %12
  %31 = tail call fastcc ptr @mi_heap_malloc_zero_aligned_at_generic(ptr noundef %0, i64 noundef %storemerge.i.ph, i64 noundef %3, i64 noundef %4, i1 noundef zeroext true) #9
  br label %mi_count_size_overflow.exit

mi_count_size_overflow.exit:                      ; preds = %.thread.i.i, %29, %10, %6
  %.0 = phi ptr [ null, %6 ], [ %31, %.thread.i.i ], [ null, %10 ], [ %30, %29 ]
  ret ptr %.0
}